target datalayout = "e-m:e-p270:32:32-p271:32:32-p272:64:64-i64:64-i128:128-f80:128-n8:16:32:64-S128"
target triple = "x86_64-unknown-linux-gnu"

%"struct.net::QuicBufferedPacketStore::BufferedPacketList" = type { %"class.std::__cxx11::list", %"class.net::QuicTime" }
%"class.std::__cxx11::list" = type { %"class.std::__cxx11::_List_base" }
%"class.std::__cxx11::_List_base" = type { %"struct.std::__cxx11::_List_base<net::QuicBufferedPacketStore::BufferedPacket, std::allocator<net::QuicBufferedPacketStore::BufferedPacket>>::_List_impl" }
%"struct.std::__cxx11::_List_base<net::QuicBufferedPacketStore::BufferedPacket, std::allocator<net::QuicBufferedPacketStore::BufferedPacket>>::_List_impl" = type { %"struct.std::__detail::_List_node_header" }
%"struct.std::__detail::_List_node_header" = type { %"struct.std::__detail::_List_node_base", i64 }
%"struct.std::__detail::_List_node_base" = type { ptr, ptr }
%"class.net::QuicTime" = type { i64 }

; Function Attrs: noreturn nounwind uwtable
define linkonce_odr hidden void @__clang_call_terminate(ptr noundef %0) #8 comdat {
  %2 = call ptr @__cxa_begin_catch(ptr %0) #12
  call void @_ZSt9terminatev() #15
  unreachable
}

; Function Attrs: mustprogress nounwind uwtable
define linkonce_odr dso_local void @_ZNSt8__detail17_List_node_header7_M_initEv(ptr noundef nonnull align 8 dereferenceable(24) %this) #1 comdat align 2 {
entry:
  %this.addr = alloca ptr, align 8
  store ptr %this, ptr %this.addr, align 8
  %this1 = load ptr, ptr %this.addr, align 8
  %_M_prev = getelementptr inbounds %"struct.std::__detail::_List_node_base", ptr %this1, i32 0, i32 1
  store ptr %this1, ptr %_M_prev, align 8
  %_M_next = getelementptr inbounds %"struct.std::__detail::_List_node_base", ptr %this1, i32 0, i32 0
  store ptr %this1, ptr %_M_next, align 8
  %_M_size = getelementptr inbounds %"struct.std::__detail::_List_node_header", ptr %this1, i32 0, i32 1
  store i64 0, ptr %_M_size, align 8
  ret void
}

; Function Attrs: mustprogress nounwind uwtable
define linkonce_odr dso_local noundef ptr @_ZNSt8__detail17_List_node_header7_M_baseEv(ptr noundef nonnull align 8 dereferenceable(24) %this) #1 comdat align 2 {
entry:
  %this.addr = alloca ptr, align 8
  store ptr %this, ptr %this.addr, align 8
  %this1 = load ptr, ptr %this.addr, align 8
  ret ptr %this1
}

; Function Attrs: mustprogress nounwind uwtable
define linkonce_odr dso_local void @_ZNSt15__new_allocatorISt10_List_nodeIN3net23QuicBufferedPacketStore14BufferedPacketEEEC2ERKS5_(ptr noundef nonnull align 1 dereferenceable(1) %this, ptr noundef nonnull align 1 dereferenceable(1) %0) unnamed_addr #1 comdat align 2 {
entry:
  %this.addr = alloca ptr, align 8
  %.addr = alloca ptr, align 8
  store ptr %this, ptr %this.addr, align 8
  store ptr %0, ptr %.addr, align 8
  ret void
}

; Function Attrs: mustprogress nounwind uwtable
define linkonce_odr dso_local void @_ZNSt8__detail17_List_node_headerC2EOS0_(ptr noundef nonnull align 8 dereferenceable(24) %this, ptr noundef nonnull align 8 dereferenceable(24) %__x) unnamed_addr #1 comdat align 2 personality ptr @__gxx_personality_v0 {
entry:
  %this.addr = alloca ptr, align 8
  %__x.addr = alloca ptr, align 8
  store ptr %this, ptr %this.addr, align 8
  store ptr %__x, ptr %__x.addr, align 8
  %this1 = load ptr, ptr %this.addr, align 8
  %_M_next = getelementptr inbounds %"struct.std::__detail::_List_node_base", ptr %this1, i32 0, i32 0
  %0 = load ptr, ptr %__x.addr, align 8
  %_M_next2 = getelementptr inbounds %"struct.std::__detail::_List_node_base", ptr %0, i32 0, i32 0
  %1 = load ptr, ptr %_M_next2, align 8
  store ptr %1, ptr %_M_next, align 8
  %_M_prev = getelementptr inbounds %"struct.std::__detail::_List_node_base", ptr %this1, i32 0, i32 1
  %2 = load ptr, ptr %__x.addr, align 8
  %_M_prev3 = getelementptr inbounds %"struct.std::__detail::_List_node_base", ptr %2, i32 0, i32 1
  %3 = load ptr, ptr %_M_prev3, align 8
  store ptr %3, ptr %_M_prev, align 8
  %_M_size = getelementptr inbounds %"struct.std::__detail::_List_node_header", ptr %this1, i32 0, i32 1
  %4 = load ptr, ptr %__x.addr, align 8
  %_M_size4 = getelementptr inbounds %"struct.std::__detail::_List_node_header", ptr %4, i32 0, i32 1
  %5 = load i64, ptr %_M_size4, align 8
  store i64 %5, ptr %_M_size, align 8
  %6 = load ptr, ptr %__x.addr, align 8
  %call = invoke noundef ptr @_ZNSt8__detail17_List_node_header7_M_baseEv(ptr noundef nonnull align 8 dereferenceable(24) %6)
          to label %invoke.cont unwind label %terminate.lpad

invoke.cont:                                      ; preds = %entry
  %_M_next5 = getelementptr inbounds %"struct.std::__detail::_List_node_base", ptr %call, i32 0, i32 0
  %7 = load ptr, ptr %_M_next5, align 8
  %8 = load ptr, ptr %__x.addr, align 8
  %call7 = invoke noundef ptr @_ZNSt8__detail17_List_node_header7_M_baseEv(ptr noundef nonnull align 8 dereferenceable(24) %8)
          to label %invoke.cont6 unwind label %terminate.lpad

invoke.cont6:                                     ; preds = %invoke.cont
  %cmp = icmp eq ptr %7, %call7
  br i1 %cmp, label %if.then, label %if.else

if.then:                                          ; preds = %invoke.cont6
  %_M_prev8 = getelementptr inbounds %"struct.std::__detail::_List_node_base", ptr %this1, i32 0, i32 1
  store ptr %this1, ptr %_M_prev8, align 8
  %_M_next9 = getelementptr inbounds %"struct.std::__detail::_List_node_base", ptr %this1, i32 0, i32 0
  store ptr %this1, ptr %_M_next9, align 8
  br label %if.end

if.else:                                          ; preds = %invoke.cont6
  %call11 = invoke noundef ptr @_ZNSt8__detail17_List_node_header7_M_baseEv(ptr noundef nonnull align 8 dereferenceable(24) %this1)
          to label %invoke.cont10 unwind label %terminate.lpad

invoke.cont10:                                    ; preds = %if.else
  %_M_prev12 = getelementptr inbounds %"struct.std::__detail::_List_node_base", ptr %this1, i32 0, i32 1
  %9 = load ptr, ptr %_M_prev12, align 8
  %_M_next13 = getelementptr inbounds %"struct.std::__detail::_List_node_base", ptr %9, i32 0, i32 0
  store ptr %call11, ptr %_M_next13, align 8
  %_M_next14 = getelementptr inbounds %"struct.std::__detail::_List_node_base", ptr %this1, i32 0, i32 0
  %10 = load ptr, ptr %_M_next14, align 8
  %_M_prev15 = getelementptr inbounds %"struct.std::__detail::_List_node_base", ptr %10, i32 0, i32 1
  store ptr %call11, ptr %_M_prev15, align 8
  %11 = load ptr, ptr %__x.addr, align 8
  call void @_ZNSt8__detail17_List_node_header7_M_initEv(ptr noundef nonnull align 8 dereferenceable(24) %11) #12
  br label %if.end

if.end:                                           ; preds = %invoke.cont10, %if.then
  ret void

terminate.lpad:                                   ; preds = %if.else, %invoke.cont, %entry
  %12 = landingpad { ptr, i32 }
          catch ptr null
  %13 = extractvalue { ptr, i32 } %12, 0
  call void @__clang_call_terminate(ptr %13) #15
  unreachable
}

; Function Attrs: mustprogress nounwind uwtable
define linkonce_odr dso_local void @_ZNSaISt10_List_nodeIN3net23QuicBufferedPacketStore14BufferedPacketEEEC2ERKS4_(ptr noundef nonnull align 1 dereferenceable(1) %this, ptr noundef nonnull align 1 dereferenceable(1) %__a) unnamed_addr #1 comdat align 2 {
entry:
  %this.addr = alloca ptr, align 8
  %__a.addr = alloca ptr, align 8
  store ptr %this, ptr %this.addr, align 8
  store ptr %__a, ptr %__a.addr, align 8
  %this1 = load ptr, ptr %this.addr, align 8
  %0 = load ptr, ptr %__a.addr, align 8
  call void @_ZNSt15__new_allocatorISt10_List_nodeIN3net23QuicBufferedPacketStore14BufferedPacketEEEC2ERKS5_(ptr noundef nonnull align 1 dereferenceable(1) %this1, ptr noundef nonnull align 1 dereferenceable(1) %0) #12
  ret void
}

; Function Attrs: mustprogress nounwind uwtable
define linkonce_odr dso_local void @_ZNSt7__cxx1110_List_baseIN3net23QuicBufferedPacketStore14BufferedPacketESaIS3_EE10_List_implC2EOS6_(ptr noundef nonnull align 8 dereferenceable(24) %this, ptr noundef nonnull align 8 dereferenceable(24) %0) unnamed_addr #1 comdat align 2 {
entry:
  %this.addr = alloca ptr, align 8
  %.addr = alloca ptr, align 8
  store ptr %this, ptr %this.addr, align 8
  store ptr %0, ptr %.addr, align 8
  %this1 = load ptr, ptr %this.addr, align 8
  %1 = load ptr, ptr %.addr, align 8
  call void @_ZNSaISt10_List_nodeIN3net23QuicBufferedPacketStore14BufferedPacketEEEC2ERKS4_(ptr noundef nonnull align 1 dereferenceable(1) %this1, ptr noundef nonnull align 1 dereferenceable(1) %1) #12
  %_M_node = getelementptr inbounds %"struct.std::__cxx11::_List_base<net::QuicBufferedPacketStore::BufferedPacket, std::allocator<net::QuicBufferedPacketStore::BufferedPacket>>::_List_impl", ptr %this1, i32 0, i32 0
  %2 = load ptr, ptr %.addr, align 8
  %_M_node2 = getelementptr inbounds %"struct.std::__cxx11::_List_base<net::QuicBufferedPacketStore::BufferedPacket, std::allocator<net::QuicBufferedPacketStore::BufferedPacket>>::_List_impl", ptr %2, i32 0, i32 0
  call void @_ZNSt8__detail17_List_node_headerC2EOS0_(ptr noundef nonnull align 8 dereferenceable(24) %_M_node, ptr noundef nonnull align 8 dereferenceable(24) %_M_node2) #12
  ret void
}

; Function Attrs: mustprogress nounwind uwtable
define linkonce_odr dso_local void @_ZNSt7__cxx1110_List_baseIN3net23QuicBufferedPacketStore14BufferedPacketESaIS3_EEC2EOS5_(ptr noundef nonnull align 8 dereferenceable(24) %this, ptr noundef nonnull align 8 dereferenceable(24) %0) unnamed_addr #1 comdat align 2 {
entry:
  %this.addr = alloca ptr, align 8
  %.addr = alloca ptr, align 8
  store ptr %this, ptr %this.addr, align 8
  store ptr %0, ptr %.addr, align 8
  %this1 = load ptr, ptr %this.addr, align 8
  %_M_impl = getelementptr inbounds %"class.std::__cxx11::_List_base", ptr %this1, i32 0, i32 0
  %1 = load ptr, ptr %.addr, align 8
  %_M_impl2 = getelementptr inbounds %"class.std::__cxx11::_List_base", ptr %1, i32 0, i32 0
  call void @_ZNSt7__cxx1110_List_baseIN3net23QuicBufferedPacketStore14BufferedPacketESaIS3_EE10_List_implC2EOS6_(ptr noundef nonnull align 8 dereferenceable(24) %_M_impl, ptr noundef nonnull align 8 dereferenceable(24) %_M_impl2) #12
  ret void
}

; Function Attrs: mustprogress nounwind uwtable
define linkonce_odr dso_local void @_ZNSt7__cxx114listIN3net23QuicBufferedPacketStore14BufferedPacketESaIS3_EEC2EOS5_(ptr noundef nonnull align 8 dereferenceable(24) %this, ptr noundef nonnull align 8 dereferenceable(24) %0) unnamed_addr #1 comdat align 2 {
entry:
  %this.addr = alloca ptr, align 8
  %.addr = alloca ptr, align 8
  store ptr %this, ptr %this.addr, align 8
  store ptr %0, ptr %.addr, align 8
  %this1 = load ptr, ptr %this.addr, align 8
  %1 = load ptr, ptr %.addr, align 8
  call void @_ZNSt7__cxx1110_List_baseIN3net23QuicBufferedPacketStore14BufferedPacketESaIS3_EEC2EOS5_(ptr noundef nonnull align 8 dereferenceable(24) %this1, ptr noundef nonnull align 8 dereferenceable(24) %1) #12
  ret void
}

; Function Attrs: mustprogress nounwind uwtable
define dso_local void @_ZN3net23QuicBufferedPacketStore18BufferedPacketListC2EOS1_(ptr noundef nonnull align 8 dereferenceable(32) %this, ptr noundef nonnull align 8 dereferenceable(32) %other) unnamed_addr #1 align 2 {
entry:
  %this.addr = alloca ptr, align 8
  %other.addr = alloca ptr, align 8
  store ptr %this, ptr %this.addr, align 8
  store ptr %other, ptr %other.addr, align 8
  %this1 = load ptr, ptr %this.addr, align 8
  %buffered_packets = getelementptr inbounds %"struct.net::QuicBufferedPacketStore::BufferedPacketList", ptr %this1, i32 0, i32 0
  %0 = load ptr, ptr %other.addr, align 8
  %buffered_packets2 = getelementptr inbounds %"struct.net::QuicBufferedPacketStore::BufferedPacketList", ptr %0, i32 0, i32 0
  call void @_ZNSt7__cxx114listIN3net23QuicBufferedPacketStore14BufferedPacketESaIS3_EEC2EOS5_(ptr noundef nonnull align 8 dereferenceable(24) %buffered_packets, ptr noundef nonnull align 8 dereferenceable(24) %buffered_packets2) #12
  %creation_time = getelementptr inbounds %"struct.net::QuicBufferedPacketStore::BufferedPacketList", ptr %this1, i32 0, i32 1
  %1 = load ptr, ptr %other.addr, align 8
  %creation_time3 = getelementptr inbounds %"struct.net::QuicBufferedPacketStore::BufferedPacketList", ptr %1, i32 0, i32 1
  call void @llvm.memcpy.p0.p0.i64(ptr align 8 %creation_time, ptr align 8 %creation_time3, i64 8, i1 false)
  ret void
}