; Function Attrs: mustprogress nofree norecurse nosync nounwind willreturn memory(write, argmem: readwrite, inaccessiblemem: none) uwtable
define dso_local void @_ZN3net23QuicBufferedPacketStore18BufferedPacketListC2EOS1_(ptr noundef nonnull align 8 dereferenceable(32) %this, ptr noundef nonnull align 8 dereferenceable(32) %other) unnamed_addr #5 align 2 personality ptr @__gxx_personality_v0 {
entry:
  %0 = load ptr, ptr %other, align 8
  store ptr %0, ptr %this, align 8
  %_M_prev.i.i.i.i = getelementptr inbounds i8, ptr %this, i64 8
  %_M_prev3.i.i.i.i = getelementptr inbounds i8, ptr %other, i64 8
  %1 = load ptr, ptr %_M_prev3.i.i.i.i, align 8
  store ptr %1, ptr %_M_prev.i.i.i.i, align 8
  %_M_size.i.i.i.i = getelementptr inbounds i8, ptr %this, i64 16
  %_M_size4.i.i.i.i = getelementptr inbounds i8, ptr %other, i64 16
  %2 = load i64, ptr %_M_size4.i.i.i.i, align 8
  store i64 %2, ptr %_M_size.i.i.i.i, align 8
  %3 = load ptr, ptr %other, align 8
  %cmp.i.i.i.i = icmp eq ptr %3, %other
  br i1 %cmp.i.i.i.i, label %if.then.i.i.i.i, label %if.else.i.i.i.i

if.then.i.i.i.i:                                  ; preds = %entry
  store ptr %this, ptr %_M_prev.i.i.i.i, align 8
  store ptr %this, ptr %this, align 8
  br label %_ZNSt7__cxx114listIN3net23QuicBufferedPacketStore14BufferedPacketESaIS3_EEC2EOS5_.exit

if.else.i.i.i.i:                                  ; preds = %entry
  store ptr %this, ptr %1, align 8
  %4 = load ptr, ptr %this, align 8
  %_M_prev15.i.i.i.i = getelementptr inbounds i8, ptr %4, i64 8
  store ptr %this, ptr %_M_prev15.i.i.i.i, align 8
  store ptr %other, ptr %_M_prev3.i.i.i.i, align 8
  store ptr %other, ptr %other, align 8
  store i64 0, ptr %_M_size4.i.i.i.i, align 8
  br label %_ZNSt7__cxx114listIN3net23QuicBufferedPacketStore14BufferedPacketESaIS3_EEC2EOS5_.exit

_ZNSt7__cxx114listIN3net23QuicBufferedPacketStore14BufferedPacketESaIS3_EEC2EOS5_.exit: ; preds = %if.then.i.i.i.i, %if.else.i.i.i.i
  %creation_time = getelementptr inbounds i8, ptr %this, i64 24
  %creation_time3 = getelementptr inbounds i8, ptr %other, i64 24
  %5 = load i64, ptr %creation_time3, align 8
  store i64 %5, ptr %creation_time, align 8
  ret void
}